; Function Attrs: nounwind uwtable
define internal fastcc void @_jumbleDefElem(ptr noundef %0, ptr noundef nonnull readonly captures(none) %1) unnamed_addr #0 {
  %3 = getelementptr inbounds nuw i8, ptr %1, i64 8
  %4 = load ptr, ptr %3, align 8
  %.not = icmp eq ptr %4, null
  br i1 %.not, label %21, label %5

5:                                                ; preds = %2
  %6 = tail call i64 @strlen(ptr noundef nonnull dereferenceable(1) %4) #8
  %7 = add i64 %6, 1
  %8 = load ptr, ptr %0, align 8
  %9 = getelementptr inbounds nuw i8, ptr %0, i64 8
  %10 = load i64, ptr %9, align 8
  %.not23.i = icmp eq i64 %7, 0
  br i1 %.not23.i, label %AppendJumble.exit, label %.lr.ph.i

.lr.ph.i:                                         ; preds = %5, %14
  %.026.i = phi ptr [ %19, %14 ], [ %4, %5 ]
  %.02125.i = phi i64 [ %20, %14 ], [ %7, %5 ]
  %.02224.i = phi i64 [ %18, %14 ], [ %10, %5 ]
  %11 = icmp ugt i64 %.02224.i, 1023
  br i1 %11, label %12, label %14

12:                                               ; preds = %.lr.ph.i
  %13 = tail call i64 @hash_bytes_extended(ptr noundef %8, i32 noundef 1024, i64 noundef 0) #9
  store i64 %13, ptr %8, align 1
  br label %14

14:                                               ; preds = %12, %.lr.ph.i
  %.1.i = phi i64 [ 8, %12 ], [ %.02224.i, %.lr.ph.i ]
  %15 = sub nuw nsw i64 1024, %.1.i
  %16 = tail call i64 @llvm.umin.i64(i64 %.02125.i, i64 %15)
  %17 = getelementptr inbounds nuw i8, ptr %8, i64 %.1.i
  tail call void @llvm.memcpy.p0.p0.i64(ptr noundef nonnull align 1 dereferenceable(1) %17, ptr noundef nonnull align 1 dereferenceable(1) %.026.i, i64 %16, i1 false)
  %18 = add nuw nsw i64 %16, %.1.i
  %19 = getelementptr inbounds nuw i8, ptr %.026.i, i64 %16
  %20 = sub i64 %.02125.i, %16
  %.not.i = icmp eq i64 %20, 0
  br i1 %.not.i, label %AppendJumble.exit, label %.lr.ph.i, !llvm.loop !7

AppendJumble.exit:                                ; preds = %14, %5
  %.022.lcssa.i = phi i64 [ %10, %5 ], [ %18, %14 ]
  store i64 %.022.lcssa.i, ptr %9, align 8
  br label %21

21:                                               ; preds = %2, %AppendJumble.exit
  %22 = getelementptr inbounds nuw i8, ptr %1, i64 16
  %23 = load ptr, ptr %22, align 8
  %.not14 = icmp eq ptr %23, null
  br i1 %.not14, label %40, label %24

24:                                               ; preds = %21
  %25 = tail call i64 @strlen(ptr noundef nonnull dereferenceable(1) %23) #8
  %26 = add i64 %25, 1
  %27 = load ptr, ptr %0, align 8
  %28 = getelementptr inbounds nuw i8, ptr %0, i64 8
  %29 = load i64, ptr %28, align 8
  %.not23.i15 = icmp eq i64 %26, 0
  br i1 %.not23.i15, label %AppendJumble.exit23, label %.lr.ph.i16

.lr.ph.i16:                                       ; preds = %24, %33
  %.026.i17 = phi ptr [ %38, %33 ], [ %23, %24 ]
  %.02125.i18 = phi i64 [ %39, %33 ], [ %26, %24 ]
  %.02224.i19 = phi i64 [ %37, %33 ], [ %29, %24 ]
  %30 = icmp ugt i64 %.02224.i19, 1023
  br i1 %30, label %31, label %33

31:                                               ; preds = %.lr.ph.i16
  %32 = tail call i64 @hash_bytes_extended(ptr noundef %27, i32 noundef 1024, i64 noundef 0) #9
  store i64 %32, ptr %27, align 1
  br label %33

33:                                               ; preds = %31, %.lr.ph.i16
  %.1.i20 = phi i64 [ 8, %31 ], [ %.02224.i19, %.lr.ph.i16 ]
  %34 = sub nuw nsw i64 1024, %.1.i20
  %35 = tail call i64 @llvm.umin.i64(i64 %.02125.i18, i64 %34)
  %36 = getelementptr inbounds nuw i8, ptr %27, i64 %.1.i20
  tail call void @llvm.memcpy.p0.p0.i64(ptr noundef nonnull align 1 dereferenceable(1) %36, ptr noundef nonnull align 1 dereferenceable(1) %.026.i17, i64 %35, i1 false)
  %37 = add nuw nsw i64 %35, %.1.i20
  %38 = getelementptr inbounds nuw i8, ptr %.026.i17, i64 %35
  %39 = sub i64 %.02125.i18, %35
  %.not.i21 = icmp eq i64 %39, 0
  br i1 %.not.i21, label %AppendJumble.exit23, label %.lr.ph.i16, !llvm.loop !7

AppendJumble.exit23:                              ; preds = %33, %24
  %.022.lcssa.i22 = phi i64 [ %29, %24 ], [ %37, %33 ]
  store i64 %.022.lcssa.i22, ptr %28, align 8
  br label %40

40:                                               ; preds = %AppendJumble.exit23, %21
  %41 = getelementptr inbounds nuw i8, ptr %1, i64 24
  %42 = load ptr, ptr %41, align 8
  tail call fastcc void @_jumbleNode(ptr noundef %0, ptr noundef %42)
  %43 = getelementptr inbounds nuw i8, ptr %1, i64 32
  %44 = load ptr, ptr %0, align 8
  %45 = getelementptr inbounds nuw i8, ptr %0, i64 8
  %46 = load i64, ptr %45, align 8
  br label %.lr.ph.i24

.lr.ph.i24:                                       ; preds = %50, %40
  %.026.i25 = phi ptr [ %55, %50 ], [ %43, %40 ]
  %.02125.i26 = phi i64 [ %56, %50 ], [ 4, %40 ]
  %.02224.i27 = phi i64 [ %54, %50 ], [ %46, %40 ]
  %47 = icmp ugt i64 %.02224.i27, 1023
  br i1 %47, label %48, label %50

48:                                               ; preds = %.lr.ph.i24
  %49 = tail call i64 @hash_bytes_extended(ptr noundef %44, i32 noundef 1024, i64 noundef 0) #9
  store i64 %49, ptr %44, align 1
  br label %50

50:                                               ; preds = %48, %.lr.ph.i24
  %.1.i28 = phi i64 [ 8, %48 ], [ %.02224.i27, %.lr.ph.i24 ]
  %51 = sub nuw nsw i64 1024, %.1.i28
  %52 = tail call i64 @llvm.umin.i64(i64 %.02125.i26, i64 %51)
  %53 = getelementptr inbounds nuw i8, ptr %44, i64 %.1.i28
  tail call void @llvm.memcpy.p0.p0.i64(ptr noundef nonnull align 1 dereferenceable(1) %53, ptr noundef nonnull align 1 dereferenceable(1) %.026.i25, i64 %52, i1 false)
  %54 = add nuw nsw i64 %52, %.1.i28
  %55 = getelementptr inbounds nuw i8, ptr %.026.i25, i64 %52
  %56 = sub i64 %.02125.i26, %52
  %.not.i29 = icmp eq i64 %56, 0
  br i1 %.not.i29, label %AppendJumble.exit31, label %.lr.ph.i24, !llvm.loop !7

AppendJumble.exit31:                              ; preds = %50
  store i64 %54, ptr %45, align 8
  ret void
}